target datalayout = "e-m:e-p270:32:32-p271:32:32-p272:64:64-i64:64-i128:128-f80:128-n8:16:32:64-S128"
target triple = "x86_64-pc-linux-gnu"

%struct.pmix_class_t = type { ptr, ptr, ptr, ptr, i32, i32, ptr, ptr, i64 }
%struct.pmix_tma = type { ptr, ptr, ptr, ptr, ptr, ptr, ptr, ptr }
%union.pthread_mutex_t = type { %struct.__pthread_mutex_s }
%struct.__pthread_mutex_s = type { i32, i32, i32, i32, i32, i16, i16, %struct.__pthread_internal_list }
%struct.__pthread_internal_list = type { ptr, ptr }
%struct.pmix_object_t = type { %union.pthread_mutex_t, ptr, i32, %struct.pmix_tma }
%struct.timeval = type { i64, i64 }
%struct.pmix_list_t = type { %struct.pmix_object_t, %struct.pmix_list_item_t, i64 }
%struct.pmix_list_item_t = type { %struct.pmix_object_t, ptr, ptr, i32 }
%struct.pmix_epilog_t = type { i32, i32, %struct.pmix_list_t, %struct.pmix_list_t, %struct.pmix_list_t }
%struct.pmix_peer_t = type { %struct.pmix_object_t, ptr, ptr, %struct.pmix_proc_type_t, i16, i32, i32, i32, i8, %struct.event, i8, %struct.event, i8, %struct.pmix_list_t, ptr, ptr, i32, %struct.pmix_epilog_t }
%struct.pmix_proc_type_t = type { i32, i8, i8, i8, i8 }
%struct.event = type { %struct.event_callback, %union.anon.3, i32, ptr, %union.anon.5, i16, i16, %struct.timeval }
%struct.event_callback = type { %struct.anon.1, i16, i8, i8, %union.anon.2, ptr }
%struct.anon.1 = type { ptr, ptr }
%union.anon.2 = type { ptr }
%union.anon.3 = type { %struct.anon.4 }
%struct.anon.4 = type { ptr, ptr }
%union.anon.5 = type { %struct.anon.6 }
%struct.anon.6 = type { %struct.anon.7, %struct.timeval }
%struct.anon.7 = type { ptr, ptr }

@pmix_class_init_epoch = external global i32, align 4
@pmix_list_t_class = external global %struct.pmix_class_t, align 8

; Function Attrs: inlinehint nounwind uwtable
define internal void @pmix_obj_run_constructors(ptr noundef %0) #2 {
  %2 = alloca ptr, align 8
  %3 = alloca ptr, align 8
  store ptr %0, ptr %2, align 8, !tbaa !20
  call void @llvm.lifetime.start.p0(i64 8, ptr %3) #13
  %4 = load ptr, ptr %2, align 8, !tbaa !20
  %5 = getelementptr inbounds nuw %struct.pmix_object_t, ptr %4, i32 0, i32 1
  %6 = load ptr, ptr %5, align 8, !tbaa !14
  %7 = getelementptr inbounds nuw %struct.pmix_class_t, ptr %6, i32 0, i32 6
  %8 = load ptr, ptr %7, align 8, !tbaa !303
  store ptr %8, ptr %3, align 8, !tbaa !3
  br label %9

9:                                                ; preds = %13, %1
  %10 = load ptr, ptr %3, align 8, !tbaa !3
  %11 = load ptr, ptr %10, align 8, !tbaa !3
  %12 = icmp ne ptr null, %11
  br i1 %12, label %13, label %19

13:                                               ; preds = %9
  %14 = load ptr, ptr %3, align 8, !tbaa !3
  %15 = load ptr, ptr %14, align 8, !tbaa !3
  %16 = load ptr, ptr %2, align 8, !tbaa !20
  call void %15(ptr noundef %16)
  %17 = load ptr, ptr %3, align 8, !tbaa !3
  %18 = getelementptr inbounds nuw ptr, ptr %17, i32 1
  store ptr %18, ptr %3, align 8, !tbaa !3
  br label %9, !llvm.loop !304

19:                                               ; preds = %9
  call void @llvm.lifetime.end.p0(i64 8, ptr %3) #13
  ret void
}

; Function Attrs: inlinehint nounwind uwtable
define internal void @pmix_obj_construct_tma(ptr noundef %0, ptr noundef %1) #2 {
  %3 = alloca ptr, align 8
  %4 = alloca ptr, align 8
  store ptr %0, ptr %3, align 8, !tbaa !20
  store ptr %1, ptr %4, align 8, !tbaa !58
  %5 = load ptr, ptr %4, align 8, !tbaa !58
  %6 = icmp eq ptr null, %5
  br i1 %6, label %7, label %32

7:                                                ; preds = %2
  %8 = load ptr, ptr %3, align 8, !tbaa !20
  %9 = getelementptr inbounds nuw %struct.pmix_object_t, ptr %8, i32 0, i32 3
  %10 = getelementptr inbounds nuw %struct.pmix_tma, ptr %9, i32 0, i32 0
  store ptr null, ptr %10, align 8, !tbaa !295
  %11 = load ptr, ptr %3, align 8, !tbaa !20
  %12 = getelementptr inbounds nuw %struct.pmix_object_t, ptr %11, i32 0, i32 3
  %13 = getelementptr inbounds nuw %struct.pmix_tma, ptr %12, i32 0, i32 1
  store ptr null, ptr %13, align 8, !tbaa !296
  %14 = load ptr, ptr %3, align 8, !tbaa !20
  %15 = getelementptr inbounds nuw %struct.pmix_object_t, ptr %14, i32 0, i32 3
  %16 = getelementptr inbounds nuw %struct.pmix_tma, ptr %15, i32 0, i32 2
  store ptr null, ptr %16, align 8, !tbaa !297
  %17 = load ptr, ptr %3, align 8, !tbaa !20
  %18 = getelementptr inbounds nuw %struct.pmix_object_t, ptr %17, i32 0, i32 3
  %19 = getelementptr inbounds nuw %struct.pmix_tma, ptr %18, i32 0, i32 3
  store ptr null, ptr %19, align 8, !tbaa !298
  %20 = load ptr, ptr %3, align 8, !tbaa !20
  %21 = getelementptr inbounds nuw %struct.pmix_object_t, ptr %20, i32 0, i32 3
  %22 = getelementptr inbounds nuw %struct.pmix_tma, ptr %21, i32 0, i32 4
  store ptr null, ptr %22, align 8, !tbaa !299
  %23 = load ptr, ptr %3, align 8, !tbaa !20
  %24 = getelementptr inbounds nuw %struct.pmix_object_t, ptr %23, i32 0, i32 3
  %25 = getelementptr inbounds nuw %struct.pmix_tma, ptr %24, i32 0, i32 5
  store ptr null, ptr %25, align 8, !tbaa !22
  %26 = load ptr, ptr %3, align 8, !tbaa !20
  %27 = getelementptr inbounds nuw %struct.pmix_object_t, ptr %26, i32 0, i32 3
  %28 = getelementptr inbounds nuw %struct.pmix_tma, ptr %27, i32 0, i32 6
  store ptr null, ptr %28, align 8, !tbaa !300
  %29 = load ptr, ptr %3, align 8, !tbaa !20
  %30 = getelementptr inbounds nuw %struct.pmix_object_t, ptr %29, i32 0, i32 3
  %31 = getelementptr inbounds nuw %struct.pmix_tma, ptr %30, i32 0, i32 7
  store ptr null, ptr %31, align 8, !tbaa !301
  br label %36

32:                                               ; preds = %2
  %33 = load ptr, ptr %3, align 8, !tbaa !20
  %34 = getelementptr inbounds nuw %struct.pmix_object_t, ptr %33, i32 0, i32 3
  %35 = load ptr, ptr %4, align 8, !tbaa !58
  call void @llvm.memcpy.p0.p0.i64(ptr align 8 %34, ptr align 8 %35, i64 64, i1 false), !tbaa.struct !302
  br label %36

36:                                               ; preds = %32, %7
  ret void
}

; Function Attrs: nounwind uwtable
define internal void @pcon(ptr noundef %0) #0 {
  %2 = alloca ptr, align 8
  store ptr %0, ptr %2, align 8, !tbaa !86
  %3 = load ptr, ptr %2, align 8, !tbaa !86
  %4 = getelementptr inbounds nuw %struct.pmix_peer_t, ptr %3, i32 0, i32 3
  %5 = getelementptr inbounds nuw %struct.pmix_proc_type_t, ptr %4, i32 0, i32 0
  store i32 0, ptr %5, align 8, !tbaa !88
  %6 = load ptr, ptr %2, align 8, !tbaa !86
  %7 = getelementptr inbounds nuw %struct.pmix_peer_t, ptr %6, i32 0, i32 3
  %8 = getelementptr inbounds nuw %struct.pmix_proc_type_t, ptr %7, i32 0, i32 1
  store i8 -1, ptr %8, align 4, !tbaa !98
  %9 = load ptr, ptr %2, align 8, !tbaa !86
  %10 = getelementptr inbounds nuw %struct.pmix_peer_t, ptr %9, i32 0, i32 3
  %11 = getelementptr inbounds nuw %struct.pmix_proc_type_t, ptr %10, i32 0, i32 2
  store i8 -1, ptr %11, align 1, !tbaa !99
  %12 = load ptr, ptr %2, align 8, !tbaa !86
  %13 = getelementptr inbounds nuw %struct.pmix_peer_t, ptr %12, i32 0, i32 3
  %14 = getelementptr inbounds nuw %struct.pmix_proc_type_t, ptr %13, i32 0, i32 3
  store i8 -1, ptr %14, align 2, !tbaa !100
  %15 = load ptr, ptr %2, align 8, !tbaa !86
  %16 = getelementptr inbounds nuw %struct.pmix_peer_t, ptr %15, i32 0, i32 3
  %17 = getelementptr inbounds nuw %struct.pmix_proc_type_t, ptr %16, i32 0, i32 4
  store i8 0, ptr %17, align 1, !tbaa !101
  %18 = load ptr, ptr %2, align 8, !tbaa !86
  %19 = getelementptr inbounds nuw %struct.pmix_peer_t, ptr %18, i32 0, i32 4
  store i16 0, ptr %19, align 8, !tbaa !102
  %20 = load ptr, ptr %2, align 8, !tbaa !86
  %21 = getelementptr inbounds nuw %struct.pmix_peer_t, ptr %20, i32 0, i32 8
  store i8 0, ptr %21, align 8, !tbaa !103
  %22 = load ptr, ptr %2, align 8, !tbaa !86
  %23 = getelementptr inbounds nuw %struct.pmix_peer_t, ptr %22, i32 0, i32 2
  store ptr null, ptr %23, align 8, !tbaa !104
  %24 = load ptr, ptr %2, align 8, !tbaa !86
  %25 = getelementptr inbounds nuw %struct.pmix_peer_t, ptr %24, i32 0, i32 5
  store i32 0, ptr %25, align 4, !tbaa !105
  %26 = load ptr, ptr %2, align 8, !tbaa !86
  %27 = getelementptr inbounds nuw %struct.pmix_peer_t, ptr %26, i32 0, i32 6
  store i32 0, ptr %27, align 8, !tbaa !106
  %28 = load ptr, ptr %2, align 8, !tbaa !86
  %29 = getelementptr inbounds nuw %struct.pmix_peer_t, ptr %28, i32 0, i32 7
  store i32 -1, ptr %29, align 4, !tbaa !107
  %30 = load ptr, ptr %2, align 8, !tbaa !86
  %31 = getelementptr inbounds nuw %struct.pmix_peer_t, ptr %30, i32 0, i32 10
  store i8 0, ptr %31, align 8, !tbaa !108
  %32 = load ptr, ptr %2, align 8, !tbaa !86
  %33 = getelementptr inbounds nuw %struct.pmix_peer_t, ptr %32, i32 0, i32 12
  store i8 0, ptr %33, align 8, !tbaa !109
  br label %34

34:                                               ; preds = %1
  br label %35

35:                                               ; preds = %34
  br label %36

36:                                               ; preds = %35
  %37 = load i32, ptr @pmix_class_init_epoch, align 4, !tbaa !7
  %38 = load i32, ptr getelementptr inbounds nuw (%struct.pmix_class_t, ptr @pmix_list_t_class, i32 0, i32 4), align 8, !tbaa !9
  %39 = icmp ne i32 %37, %38
  br i1 %39, label %40, label %41

40:                                               ; preds = %36
  call void @pmix_class_initialize(ptr noundef @pmix_list_t_class)
  br label %41

41:                                               ; preds = %40, %36
  %42 = load ptr, ptr %2, align 8, !tbaa !86
  %43 = getelementptr inbounds nuw %struct.pmix_peer_t, ptr %42, i32 0, i32 13
  %44 = getelementptr inbounds nuw %struct.pmix_object_t, ptr %43, i32 0, i32 1
  store ptr @pmix_list_t_class, ptr %44, align 8, !tbaa !14
  %45 = load ptr, ptr %2, align 8, !tbaa !86
  %46 = getelementptr inbounds nuw %struct.pmix_peer_t, ptr %45, i32 0, i32 13
  %47 = getelementptr inbounds nuw %struct.pmix_object_t, ptr %46, i32 0, i32 2
  store i32 1, ptr %47, align 8, !tbaa !17
  %48 = load ptr, ptr %2, align 8, !tbaa !86
  %49 = getelementptr inbounds nuw %struct.pmix_peer_t, ptr %48, i32 0, i32 13
  call void @pmix_obj_construct_tma(ptr noundef %49, ptr noundef null)
  %50 = load ptr, ptr %2, align 8, !tbaa !86
  %51 = getelementptr inbounds nuw %struct.pmix_peer_t, ptr %50, i32 0, i32 13
  call void @pmix_obj_run_constructors(ptr noundef %51)
  br label %52

52:                                               ; preds = %41
  br label %53

53:                                               ; preds = %52
  br label %54

54:                                               ; preds = %53
  %55 = load ptr, ptr %2, align 8, !tbaa !86
  %56 = getelementptr inbounds nuw %struct.pmix_peer_t, ptr %55, i32 0, i32 14
  store ptr null, ptr %56, align 8, !tbaa !110
  %57 = load ptr, ptr %2, align 8, !tbaa !86
  %58 = getelementptr inbounds nuw %struct.pmix_peer_t, ptr %57, i32 0, i32 15
  store ptr null, ptr %58, align 8, !tbaa !111
  %59 = load ptr, ptr %2, align 8, !tbaa !86
  %60 = getelementptr inbounds nuw %struct.pmix_peer_t, ptr %59, i32 0, i32 16
  store i32 0, ptr %60, align 8, !tbaa !112
  br label %61

61:                                               ; preds = %54
  br label %62

62:                                               ; preds = %61
  br label %63

63:                                               ; preds = %62
  %64 = load i32, ptr @pmix_class_init_epoch, align 4, !tbaa !7
  %65 = load i32, ptr getelementptr inbounds nuw (%struct.pmix_class_t, ptr @pmix_list_t_class, i32 0, i32 4), align 8, !tbaa !9
  %66 = icmp ne i32 %64, %65
  br i1 %66, label %67, label %68

67:                                               ; preds = %63
  call void @pmix_class_initialize(ptr noundef @pmix_list_t_class)
  br label %68

68:                                               ; preds = %67, %63
  %69 = load ptr, ptr %2, align 8, !tbaa !86
  %70 = getelementptr inbounds nuw %struct.pmix_peer_t, ptr %69, i32 0, i32 17
  %71 = getelementptr inbounds nuw %struct.pmix_epilog_t, ptr %70, i32 0, i32 2
  %72 = getelementptr inbounds nuw %struct.pmix_object_t, ptr %71, i32 0, i32 1
  store ptr @pmix_list_t_class, ptr %72, align 8, !tbaa !14
  %73 = load ptr, ptr %2, align 8, !tbaa !86
  %74 = getelementptr inbounds nuw %struct.pmix_peer_t, ptr %73, i32 0, i32 17
  %75 = getelementptr inbounds nuw %struct.pmix_epilog_t, ptr %74, i32 0, i32 2
  %76 = getelementptr inbounds nuw %struct.pmix_object_t, ptr %75, i32 0, i32 2
  store i32 1, ptr %76, align 8, !tbaa !17
  %77 = load ptr, ptr %2, align 8, !tbaa !86
  %78 = getelementptr inbounds nuw %struct.pmix_peer_t, ptr %77, i32 0, i32 17
  %79 = getelementptr inbounds nuw %struct.pmix_epilog_t, ptr %78, i32 0, i32 2
  call void @pmix_obj_construct_tma(ptr noundef %79, ptr noundef null)
  %80 = load ptr, ptr %2, align 8, !tbaa !86
  %81 = getelementptr inbounds nuw %struct.pmix_peer_t, ptr %80, i32 0, i32 17
  %82 = getelementptr inbounds nuw %struct.pmix_epilog_t, ptr %81, i32 0, i32 2
  call void @pmix_obj_run_constructors(ptr noundef %82)
  br label %83

83:                                               ; preds = %68
  br label %84

84:                                               ; preds = %83
  br label %85

85:                                               ; preds = %84
  br label %86

86:                                               ; preds = %85
  br label %87

87:                                               ; preds = %86
  br label %88

88:                                               ; preds = %87
  %89 = load i32, ptr @pmix_class_init_epoch, align 4, !tbaa !7
  %90 = load i32, ptr getelementptr inbounds nuw (%struct.pmix_class_t, ptr @pmix_list_t_class, i32 0, i32 4), align 8, !tbaa !9
  %91 = icmp ne i32 %89, %90
  br i1 %91, label %92, label %93

92:                                               ; preds = %88
  call void @pmix_class_initialize(ptr noundef @pmix_list_t_class)
  br label %93

93:                                               ; preds = %92, %88
  %94 = load ptr, ptr %2, align 8, !tbaa !86
  %95 = getelementptr inbounds nuw %struct.pmix_peer_t, ptr %94, i32 0, i32 17
  %96 = getelementptr inbounds nuw %struct.pmix_epilog_t, ptr %95, i32 0, i32 3
  %97 = getelementptr inbounds nuw %struct.pmix_object_t, ptr %96, i32 0, i32 1
  store ptr @pmix_list_t_class, ptr %97, align 8, !tbaa !14
  %98 = load ptr, ptr %2, align 8, !tbaa !86
  %99 = getelementptr inbounds nuw %struct.pmix_peer_t, ptr %98, i32 0, i32 17
  %100 = getelementptr inbounds nuw %struct.pmix_epilog_t, ptr %99, i32 0, i32 3
  %101 = getelementptr inbounds nuw %struct.pmix_object_t, ptr %100, i32 0, i32 2
  store i32 1, ptr %101, align 8, !tbaa !17
  %102 = load ptr, ptr %2, align 8, !tbaa !86
  %103 = getelementptr inbounds nuw %struct.pmix_peer_t, ptr %102, i32 0, i32 17
  %104 = getelementptr inbounds nuw %struct.pmix_epilog_t, ptr %103, i32 0, i32 3
  call void @pmix_obj_construct_tma(ptr noundef %104, ptr noundef null)
  %105 = load ptr, ptr %2, align 8, !tbaa !86
  %106 = getelementptr inbounds nuw %struct.pmix_peer_t, ptr %105, i32 0, i32 17
  %107 = getelementptr inbounds nuw %struct.pmix_epilog_t, ptr %106, i32 0, i32 3
  call void @pmix_obj_run_constructors(ptr noundef %107)
  br label %108

108:                                              ; preds = %93
  br label %109

109:                                              ; preds = %108
  br label %110

110:                                              ; preds = %109
  br label %111

111:                                              ; preds = %110
  br label %112

112:                                              ; preds = %111
  br label %113

113:                                              ; preds = %112
  %114 = load i32, ptr @pmix_class_init_epoch, align 4, !tbaa !7
  %115 = load i32, ptr getelementptr inbounds nuw (%struct.pmix_class_t, ptr @pmix_list_t_class, i32 0, i32 4), align 8, !tbaa !9
  %116 = icmp ne i32 %114, %115
  br i1 %116, label %117, label %118

117:                                              ; preds = %113
  call void @pmix_class_initialize(ptr noundef @pmix_list_t_class)
  br label %118

118:                                              ; preds = %117, %113
  %119 = load ptr, ptr %2, align 8, !tbaa !86
  %120 = getelementptr inbounds nuw %struct.pmix_peer_t, ptr %119, i32 0, i32 17
  %121 = getelementptr inbounds nuw %struct.pmix_epilog_t, ptr %120, i32 0, i32 4
  %122 = getelementptr inbounds nuw %struct.pmix_object_t, ptr %121, i32 0, i32 1
  store ptr @pmix_list_t_class, ptr %122, align 8, !tbaa !14
  %123 = load ptr, ptr %2, align 8, !tbaa !86
  %124 = getelementptr inbounds nuw %struct.pmix_peer_t, ptr %123, i32 0, i32 17
  %125 = getelementptr inbounds nuw %struct.pmix_epilog_t, ptr %124, i32 0, i32 4
  %126 = getelementptr inbounds nuw %struct.pmix_object_t, ptr %125, i32 0, i32 2
  store i32 1, ptr %126, align 8, !tbaa !17
  %127 = load ptr, ptr %2, align 8, !tbaa !86
  %128 = getelementptr inbounds nuw %struct.pmix_peer_t, ptr %127, i32 0, i32 17
  %129 = getelementptr inbounds nuw %struct.pmix_epilog_t, ptr %128, i32 0, i32 4
  call void @pmix_obj_construct_tma(ptr noundef %129, ptr noundef null)
  %130 = load ptr, ptr %2, align 8, !tbaa !86
  %131 = getelementptr inbounds nuw %struct.pmix_peer_t, ptr %130, i32 0, i32 17
  %132 = getelementptr inbounds nuw %struct.pmix_epilog_t, ptr %131, i32 0, i32 4
  call void @pmix_obj_run_constructors(ptr noundef %132)
  br label %133

133:                                              ; preds = %118
  br label %134

134:                                              ; preds = %133
  br label %135

135:                                              ; preds = %134
  ret void
}