; Function Attrs: nounwind uwtable
define internal void @pcon(ptr noundef initializes((128, 146), (148, 161), (296, 297), (432, 433), (480, 492), (496, 560)) %0) #0 {
  %2 = getelementptr inbounds nuw i8, ptr %0, i64 136
  store i32 0, ptr %2, align 8, !tbaa !92
  %3 = getelementptr inbounds nuw i8, ptr %0, i64 140
  store i8 -1, ptr %3, align 4, !tbaa !103
  %4 = getelementptr inbounds nuw i8, ptr %0, i64 141
  store i8 -1, ptr %4, align 1, !tbaa !104
  %5 = getelementptr inbounds nuw i8, ptr %0, i64 142
  store i8 -1, ptr %5, align 2, !tbaa !105
  %6 = getelementptr inbounds nuw i8, ptr %0, i64 143
  store i8 0, ptr %6, align 1, !tbaa !106
  %7 = getelementptr inbounds nuw i8, ptr %0, i64 144
  store i16 0, ptr %7, align 8, !tbaa !107
  %8 = getelementptr inbounds nuw i8, ptr %0, i64 160
  store i8 0, ptr %8, align 8, !tbaa !108
  %9 = getelementptr inbounds nuw i8, ptr %0, i64 128
  store ptr null, ptr %9, align 8, !tbaa !109
  %10 = getelementptr inbounds nuw i8, ptr %0, i64 148
  store i32 0, ptr %10, align 4, !tbaa !110
  %11 = getelementptr inbounds nuw i8, ptr %0, i64 152
  store i32 0, ptr %11, align 8, !tbaa !111
  %12 = getelementptr inbounds nuw i8, ptr %0, i64 156
  store i32 -1, ptr %12, align 4, !tbaa !112
  %13 = getelementptr inbounds nuw i8, ptr %0, i64 296
  store i8 0, ptr %13, align 8, !tbaa !113
  %14 = getelementptr inbounds nuw i8, ptr %0, i64 432
  store i8 0, ptr %14, align 8, !tbaa !114
  %15 = load i32, ptr @pmix_class_init_epoch, align 4, !tbaa !3
  %16 = load i32, ptr getelementptr inbounds nuw (i8, ptr @pmix_list_t_class, i64 32), align 8, !tbaa !7
  %.not = icmp eq i32 %15, %16
  br i1 %.not, label %18, label %17

17:                                               ; preds = %1
  tail call void @pmix_class_initialize(ptr noundef nonnull @pmix_list_t_class) #15
  br label %18

18:                                               ; preds = %17, %1
  %19 = getelementptr inbounds nuw i8, ptr %0, i64 440
  %20 = getelementptr inbounds nuw i8, ptr %0, i64 480
  store ptr @pmix_list_t_class, ptr %20, align 8, !tbaa !13
  %21 = getelementptr inbounds nuw i8, ptr %0, i64 488
  store i32 1, ptr %21, align 8, !tbaa !16
  %22 = getelementptr inbounds nuw i8, ptr %0, i64 496
  tail call void @llvm.memset.p0.i64(ptr noundef nonnull align 8 dereferenceable(64) %22, i8 0, i64 64, i1 false)
  %23 = load ptr, ptr getelementptr inbounds nuw (i8, ptr @pmix_list_t_class, i64 40), align 8, !tbaa !17
  %24 = load ptr, ptr %23, align 8, !tbaa !18
  %.not6.i = icmp eq ptr %24, null
  br i1 %.not6.i, label %pmix_obj_run_constructors.exit, label %.lr.ph.i

.lr.ph.i:                                         ; preds = %18, %.lr.ph.i
  %25 = phi ptr [ %27, %.lr.ph.i ], [ %24, %18 ]
  %.07.i = phi ptr [ %26, %.lr.ph.i ], [ %23, %18 ]
  tail call void %25(ptr noundef nonnull %19) #15
  %26 = getelementptr inbounds nuw i8, ptr %.07.i, i64 8
  %27 = load ptr, ptr %26, align 8, !tbaa !18
  %.not.i = icmp eq ptr %27, null
  br i1 %.not.i, label %pmix_obj_run_constructors.exit, label %.lr.ph.i, !llvm.loop !19

pmix_obj_run_constructors.exit:                   ; preds = %.lr.ph.i, %18
  %28 = getelementptr inbounds nuw i8, ptr %0, i64 712
  tail call void @llvm.memset.p0.i64(ptr noundef nonnull align 8 dereferenceable(20) %28, i8 0, i64 20, i1 false)
  %29 = load i32, ptr @pmix_class_init_epoch, align 4, !tbaa !3
  %30 = load i32, ptr getelementptr inbounds nuw (i8, ptr @pmix_list_t_class, i64 32), align 8, !tbaa !7
  %.not32 = icmp eq i32 %29, %30
  br i1 %.not32, label %32, label %31

31:                                               ; preds = %pmix_obj_run_constructors.exit
  tail call void @pmix_class_initialize(ptr noundef nonnull @pmix_list_t_class) #15
  br label %32

32:                                               ; preds = %31, %pmix_obj_run_constructors.exit
  %33 = getelementptr inbounds nuw i8, ptr %0, i64 744
  %34 = getelementptr inbounds nuw i8, ptr %0, i64 784
  store ptr @pmix_list_t_class, ptr %34, align 8, !tbaa !13
  %35 = getelementptr inbounds nuw i8, ptr %0, i64 792
  store i32 1, ptr %35, align 8, !tbaa !16
  %36 = getelementptr inbounds nuw i8, ptr %0, i64 800
  tail call void @llvm.memset.p0.i64(ptr noundef nonnull align 8 dereferenceable(64) %36, i8 0, i64 64, i1 false)
  %37 = load ptr, ptr getelementptr inbounds nuw (i8, ptr @pmix_list_t_class, i64 40), align 8, !tbaa !17
  %38 = load ptr, ptr %37, align 8, !tbaa !18
  %.not6.i35 = icmp eq ptr %38, null
  br i1 %.not6.i35, label %pmix_obj_run_constructors.exit39, label %.lr.ph.i36

.lr.ph.i36:                                       ; preds = %32, %.lr.ph.i36
  %39 = phi ptr [ %41, %.lr.ph.i36 ], [ %38, %32 ]
  %.07.i37 = phi ptr [ %40, %.lr.ph.i36 ], [ %37, %32 ]
  tail call void %39(ptr noundef nonnull %33) #15
  %40 = getelementptr inbounds nuw i8, ptr %.07.i37, i64 8
  %41 = load ptr, ptr %40, align 8, !tbaa !18
  %.not.i38 = icmp eq ptr %41, null
  br i1 %.not.i38, label %pmix_obj_run_constructors.exit39, label %.lr.ph.i36, !llvm.loop !19

pmix_obj_run_constructors.exit39:                 ; preds = %.lr.ph.i36, %32
  %42 = load i32, ptr @pmix_class_init_epoch, align 4, !tbaa !3
  %43 = load i32, ptr getelementptr inbounds nuw (i8, ptr @pmix_list_t_class, i64 32), align 8, !tbaa !7
  %.not33 = icmp eq i32 %42, %43
  br i1 %.not33, label %45, label %44

44:                                               ; preds = %pmix_obj_run_constructors.exit39
  tail call void @pmix_class_initialize(ptr noundef nonnull @pmix_list_t_class) #15
  br label %45

45:                                               ; preds = %44, %pmix_obj_run_constructors.exit39
  %46 = getelementptr inbounds nuw i8, ptr %0, i64 1016
  %47 = getelementptr inbounds nuw i8, ptr %0, i64 1056
  store ptr @pmix_list_t_class, ptr %47, align 8, !tbaa !13
  %48 = getelementptr inbounds nuw i8, ptr %0, i64 1064
  store i32 1, ptr %48, align 8, !tbaa !16
  %49 = getelementptr inbounds nuw i8, ptr %0, i64 1072
  tail call void @llvm.memset.p0.i64(ptr noundef nonnull align 8 dereferenceable(64) %49, i8 0, i64 64, i1 false)
  %50 = load ptr, ptr getelementptr inbounds nuw (i8, ptr @pmix_list_t_class, i64 40), align 8, !tbaa !17
  %51 = load ptr, ptr %50, align 8, !tbaa !18
  %.not6.i40 = icmp eq ptr %51, null
  br i1 %.not6.i40, label %pmix_obj_run_constructors.exit44, label %.lr.ph.i41

.lr.ph.i41:                                       ; preds = %45, %.lr.ph.i41
  %52 = phi ptr [ %54, %.lr.ph.i41 ], [ %51, %45 ]
  %.07.i42 = phi ptr [ %53, %.lr.ph.i41 ], [ %50, %45 ]
  tail call void %52(ptr noundef nonnull %46) #15
  %53 = getelementptr inbounds nuw i8, ptr %.07.i42, i64 8
  %54 = load ptr, ptr %53, align 8, !tbaa !18
  %.not.i43 = icmp eq ptr %54, null
  br i1 %.not.i43, label %pmix_obj_run_constructors.exit44, label %.lr.ph.i41, !llvm.loop !19

pmix_obj_run_constructors.exit44:                 ; preds = %.lr.ph.i41, %45
  %55 = load i32, ptr @pmix_class_init_epoch, align 4, !tbaa !3
  %56 = load i32, ptr getelementptr inbounds nuw (i8, ptr @pmix_list_t_class, i64 32), align 8, !tbaa !7
  %.not34 = icmp eq i32 %55, %56
  br i1 %.not34, label %58, label %57

57:                                               ; preds = %pmix_obj_run_constructors.exit44
  tail call void @pmix_class_initialize(ptr noundef nonnull @pmix_list_t_class) #15
  br label %58

58:                                               ; preds = %57, %pmix_obj_run_constructors.exit44
  %59 = getelementptr inbounds nuw i8, ptr %0, i64 1288
  %60 = getelementptr inbounds nuw i8, ptr %0, i64 1328
  store ptr @pmix_list_t_class, ptr %60, align 8, !tbaa !13
  %61 = getelementptr inbounds nuw i8, ptr %0, i64 1336
  store i32 1, ptr %61, align 8, !tbaa !16
  %62 = getelementptr inbounds nuw i8, ptr %0, i64 1344
  tail call void @llvm.memset.p0.i64(ptr noundef nonnull align 8 dereferenceable(64) %62, i8 0, i64 64, i1 false)
  %63 = load ptr, ptr getelementptr inbounds nuw (i8, ptr @pmix_list_t_class, i64 40), align 8, !tbaa !17
  %64 = load ptr, ptr %63, align 8, !tbaa !18
  %.not6.i45 = icmp eq ptr %64, null
  br i1 %.not6.i45, label %pmix_obj_run_constructors.exit49, label %.lr.ph.i46

.lr.ph.i46:                                       ; preds = %58, %.lr.ph.i46
  %65 = phi ptr [ %67, %.lr.ph.i46 ], [ %64, %58 ]
  %.07.i47 = phi ptr [ %66, %.lr.ph.i46 ], [ %63, %58 ]
  tail call void %65(ptr noundef nonnull %59) #15
  %66 = getelementptr inbounds nuw i8, ptr %.07.i47, i64 8
  %67 = load ptr, ptr %66, align 8, !tbaa !18
  %.not.i48 = icmp eq ptr %67, null
  br i1 %.not.i48, label %pmix_obj_run_constructors.exit49, label %.lr.ph.i46, !llvm.loop !19

pmix_obj_run_constructors.exit49:                 ; preds = %.lr.ph.i46, %58
  ret void
}